target datalayout = "e-m:e-p270:32:32-p271:32:32-p272:64:64-i64:64-i128:128-f80:128-n8:16:32:64-S128"
target triple = "x86_64-pc-linux-gnu"

; Function Attrs: nounwind uwtable
define i32 @get_n_bits_from_table(ptr noundef %0, i32 noundef %1, ptr noundef %2) #0 {
  %4 = alloca ptr, align 8
  %5 = alloca i32, align 4
  %6 = alloca ptr, align 8
  %7 = alloca i32, align 4
  %8 = alloca i32, align 4
  store ptr %0, ptr %4, align 8
  store i32 %1, ptr %5, align 4
  store ptr %2, ptr %6, align 8
  store i32 1, ptr %7, align 4
  %9 = load i32, ptr %5, align 4
  store i32 %9, ptr %8, align 4
  br label %10

10:                                               ; preds = %14, %3
  %11 = load i32, ptr %8, align 4
  %12 = add i32 %11, -1
  store i32 %12, ptr %8, align 4
  %13 = icmp ne i32 %11, 0
  br i1 %13, label %14, label %24

14:                                               ; preds = %10
  %15 = load i32, ptr %7, align 4
  %16 = mul i32 %15, 2
  %17 = load ptr, ptr %4, align 8
  %18 = load i32, ptr %7, align 4
  %19 = zext i32 %18 to i64
  %20 = getelementptr inbounds i16, ptr %17, i64 %19
  %21 = load ptr, ptr %6, align 8
  %22 = call i32 @getbit_from_table(ptr noundef %20, ptr noundef %21)
  %23 = add i32 %16, %22
  store i32 %23, ptr %7, align 4
  br label %10

24:                                               ; preds = %10
  %25 = load i32, ptr %7, align 4
  %26 = load i32, ptr %5, align 4
  %27 = and i32 %26, 255
  %28 = shl i32 1, %27
  %29 = sub i32 %25, %28
  ret i32 %29
}

; Function Attrs: nounwind uwtable
define i32 @get_n_bits_from_tablesize(ptr noundef %0, ptr noundef %1, i32 noundef %2) #0 {
  %4 = alloca i32, align 4
  %5 = alloca ptr, align 8
  %6 = alloca ptr, align 8
  %7 = alloca i32, align 4
  store ptr %0, ptr %5, align 8
  store ptr %1, ptr %6, align 8
  store i32 %2, ptr %7, align 4
  %8 = load ptr, ptr %5, align 8
  %9 = load ptr, ptr %6, align 8
  %10 = call i32 @getbit_from_table(ptr noundef %8, ptr noundef %9)
  %11 = icmp ne i32 %10, 0
  br i1 %11, label %21, label %12

12:                                               ; preds = %3
  %13 = load ptr, ptr %5, align 8
  %14 = load i32, ptr %7, align 4
  %15 = shl i32 %14, 3
  %16 = add i32 %15, 2
  %17 = zext i32 %16 to i64
  %18 = getelementptr inbounds i16, ptr %13, i64 %17
  %19 = load ptr, ptr %6, align 8
  %20 = call i32 @get_n_bits_from_table(ptr noundef %18, i32 noundef 3, ptr noundef %19)
  store i32 %20, ptr %4, align 4
  br label %43

21:                                               ; preds = %3
  %22 = load ptr, ptr %5, align 8
  %23 = getelementptr inbounds i16, ptr %22, i64 1
  %24 = load ptr, ptr %6, align 8
  %25 = call i32 @getbit_from_table(ptr noundef %23, ptr noundef %24)
  %26 = icmp ne i32 %25, 0
  br i1 %26, label %37, label %27

27:                                               ; preds = %21
  %28 = load ptr, ptr %5, align 8
  %29 = load i32, ptr %7, align 4
  %30 = shl i32 %29, 3
  %31 = add i32 %30, 130
  %32 = zext i32 %31 to i64
  %33 = getelementptr inbounds i16, ptr %28, i64 %32
  %34 = load ptr, ptr %6, align 8
  %35 = call i32 @get_n_bits_from_table(ptr noundef %33, i32 noundef 3, ptr noundef %34)
  %36 = add i32 8, %35
  store i32 %36, ptr %4, align 4
  br label %43

37:                                               ; preds = %21
  %38 = load ptr, ptr %5, align 8
  %39 = getelementptr inbounds i16, ptr %38, i64 258
  %40 = load ptr, ptr %6, align 8
  %41 = call i32 @get_n_bits_from_table(ptr noundef %39, i32 noundef 8, ptr noundef %40)
  %42 = add i32 16, %41
  store i32 %42, ptr %4, align 4
  br label %43

43:                                               ; preds = %37, %27, %12
  %44 = load i32, ptr %4, align 4
  ret i32 %44
}