; Function Attrs: nofree norecurse nosync nounwind memory(read, argmem: readwrite, inaccessiblemem: none) uwtable
define i32 @get_n_bits_from_tablesize(ptr noundef %0, ptr nocapture noundef %1, i32 noundef %2) local_unnamed_addr #4 {
  %4 = tail call i32 @getbit_from_table(ptr noundef %0, ptr noundef %1), !range !5
  %.not = icmp eq i32 %4, 0
  br i1 %.not, label %5, label %17

5:                                                ; preds = %3
  %6 = shl i32 %2, 3
  %7 = or disjoint i32 %6, 2
  %8 = zext i32 %7 to i64
  %9 = getelementptr inbounds i16, ptr %0, i64 %8
  br label %.lr.ph.i

.lr.ph.i:                                         ; preds = %.lr.ph.i, %5
  %.010.i = phi i32 [ %10, %.lr.ph.i ], [ 3, %5 ]
  %.079.i = phi i32 [ %15, %.lr.ph.i ], [ 1, %5 ]
  %10 = add nsw i32 %.010.i, -1
  %11 = shl i32 %.079.i, 1
  %12 = zext i32 %.079.i to i64
  %13 = getelementptr inbounds i16, ptr %9, i64 %12
  %14 = tail call i32 @getbit_from_table(ptr noundef nonnull %13, ptr noundef %1), !range !5
  %15 = add i32 %14, %11
  %.not.i = icmp eq i32 %10, 0
  br i1 %.not.i, label %get_n_bits_from_table.exit, label %.lr.ph.i

get_n_bits_from_table.exit:                       ; preds = %.lr.ph.i
  %16 = add i32 %15, -8
  br label %get_n_bits_from_table.exit17

17:                                               ; preds = %3
  %18 = getelementptr inbounds i8, ptr %0, i64 2
  %19 = tail call i32 @getbit_from_table(ptr noundef nonnull %18, ptr noundef %1), !range !5
  %.not12 = icmp eq i32 %19, 0
  br i1 %.not12, label %20, label %31

20:                                               ; preds = %17
  %21 = shl i32 %2, 3
  %22 = add i32 %21, 130
  %23 = zext i32 %22 to i64
  %24 = getelementptr inbounds i16, ptr %0, i64 %23
  br label %.lr.ph.i13

.lr.ph.i13:                                       ; preds = %.lr.ph.i13, %20
  %.010.i14 = phi i32 [ %25, %.lr.ph.i13 ], [ 3, %20 ]
  %.079.i15 = phi i32 [ %30, %.lr.ph.i13 ], [ 1, %20 ]
  %25 = add nsw i32 %.010.i14, -1
  %26 = shl i32 %.079.i15, 1
  %27 = zext i32 %.079.i15 to i64
  %28 = getelementptr inbounds i16, ptr %24, i64 %27
  %29 = tail call i32 @getbit_from_table(ptr noundef nonnull %28, ptr noundef %1), !range !5
  %30 = add i32 %29, %26
  %.not.i16 = icmp eq i32 %25, 0
  br i1 %.not.i16, label %get_n_bits_from_table.exit17, label %.lr.ph.i13

31:                                               ; preds = %17
  %32 = getelementptr inbounds i8, ptr %0, i64 516
  br label %.lr.ph.i18

.lr.ph.i18:                                       ; preds = %.lr.ph.i18, %31
  %.010.i19 = phi i32 [ %33, %.lr.ph.i18 ], [ 8, %31 ]
  %.079.i20 = phi i32 [ %38, %.lr.ph.i18 ], [ 1, %31 ]
  %33 = add nsw i32 %.010.i19, -1
  %34 = shl i32 %.079.i20, 1
  %35 = zext i32 %.079.i20 to i64
  %36 = getelementptr inbounds i16, ptr %32, i64 %35
  %37 = tail call i32 @getbit_from_table(ptr noundef nonnull %36, ptr noundef %1), !range !5
  %38 = add i32 %37, %34
  %.not.i21 = icmp eq i32 %33, 0
  br i1 %.not.i21, label %get_n_bits_from_table.exit22, label %.lr.ph.i18

get_n_bits_from_table.exit22:                     ; preds = %.lr.ph.i18
  %39 = add i32 %38, -240
  br label %get_n_bits_from_table.exit17

get_n_bits_from_table.exit17:                     ; preds = %.lr.ph.i13, %get_n_bits_from_table.exit22, %get_n_bits_from_table.exit
  %.0 = phi i32 [ %39, %get_n_bits_from_table.exit22 ], [ %16, %get_n_bits_from_table.exit ], [ %30, %.lr.ph.i13 ]
  ret i32 %.0
}